target datalayout = "e-m:e-p270:32:32-p271:32:32-p272:64:64-i64:64-i128:128-f80:128-n8:16:32:64-S128"
target triple = "x86_64-pc-linux-gnu"

%struct.AVTXContext = type { i32, i32, ptr, ptr, ptr, ptr, [4 x ptr], i32, [4 x ptr], ptr, i32, i64, i32, float, double, ptr }

; Function Attrs: cold nounwind optsize uwtable
define internal i32 @ff_tx_rdft_init_double_c(ptr noundef %0, ptr noundef %1, i64 noundef %2, ptr noundef %3, i32 noundef %4, i32 noundef %5, ptr noundef %6) #0 {
  %8 = alloca i32, align 4
  %9 = alloca ptr, align 8
  %10 = alloca ptr, align 8
  %11 = alloca i64, align 8
  %12 = alloca ptr, align 8
  %13 = alloca i32, align 4
  %14 = alloca i32, align 4
  %15 = alloca ptr, align 8
  %16 = alloca i32, align 4
  %17 = alloca double, align 8
  %18 = alloca double, align 8
  %19 = alloca ptr, align 8
  %20 = alloca i64, align 8
  %21 = alloca i32, align 4
  %22 = alloca i32, align 4
  %23 = alloca i32, align 4
  %24 = alloca i32, align 4
  store ptr %0, ptr %9, align 8, !tbaa !17
  store ptr %1, ptr %10, align 8, !tbaa !60
  store i64 %2, ptr %11, align 8, !tbaa !30
  store ptr %3, ptr %12, align 8, !tbaa !61
  store i32 %4, ptr %13, align 4, !tbaa !4
  store i32 %5, ptr %14, align 4, !tbaa !4
  store ptr %6, ptr %15, align 8, !tbaa !8
  call void @llvm.lifetime.start.p0(i64 4, ptr %16) #10
  call void @llvm.lifetime.start.p0(i64 8, ptr %17) #10
  call void @llvm.lifetime.start.p0(i64 8, ptr %18) #10
  call void @llvm.lifetime.start.p0(i64 8, ptr %19) #10
  call void @llvm.lifetime.start.p0(i64 8, ptr %20) #10
  %25 = load i64, ptr %11, align 8, !tbaa !30
  %26 = and i64 %25, 8
  store i64 %26, ptr %20, align 8, !tbaa !30
  call void @llvm.lifetime.start.p0(i64 4, ptr %21) #10
  %27 = load i32, ptr %13, align 4, !tbaa !4
  %28 = add nsw i32 %27, 4
  %29 = sub nsw i32 %28, 1
  %30 = and i32 %29, -4
  %31 = sdiv i32 %30, 4
  store i32 %31, ptr %21, align 4, !tbaa !4
  %32 = load ptr, ptr %15, align 8, !tbaa !8
  %33 = load double, ptr %32, align 8, !tbaa !29
  %34 = load ptr, ptr %9, align 8, !tbaa !17
  %35 = getelementptr inbounds nuw %struct.AVTXContext, ptr %34, i32 0, i32 14
  store double %33, ptr %35, align 8, !tbaa !28
  %36 = load ptr, ptr %9, align 8, !tbaa !17
  %37 = getelementptr inbounds nuw %struct.AVTXContext, ptr %36, i32 0, i32 14
  %38 = load double, ptr %37, align 8, !tbaa !28
  %39 = fptrunc nsz double %38 to float
  %40 = load ptr, ptr %9, align 8, !tbaa !17
  %41 = getelementptr inbounds nuw %struct.AVTXContext, ptr %40, i32 0, i32 13
  store float %39, ptr %41, align 4, !tbaa !93
  %42 = load i64, ptr %11, align 8, !tbaa !30
  %43 = and i64 %42, -25
  store i64 %43, ptr %11, align 8, !tbaa !30
  %44 = load ptr, ptr %9, align 8, !tbaa !17
  %45 = load i64, ptr %11, align 8, !tbaa !30
  %46 = load i32, ptr %13, align 4, !tbaa !4
  %47 = ashr i32 %46, 1
  %48 = load i32, ptr %14, align 4, !tbaa !4
  %49 = load ptr, ptr %15, align 8, !tbaa !8
  %50 = call i32 @ff_tx_init_subtx(ptr noundef %44, i32 noundef 2, i64 noundef %45, ptr noundef null, i32 noundef %47, i32 noundef %48, ptr noundef %49)
  store i32 %50, ptr %16, align 4, !tbaa !4
  %51 = icmp ne i32 %50, 0
  br i1 %51, label %52, label %54

52:                                               ; preds = %7
  %53 = load i32, ptr %16, align 4, !tbaa !4
  store i32 %53, ptr %8, align 4
  store i32 1, ptr %22, align 4
  br label %196

54:                                               ; preds = %7
  %55 = load i32, ptr %21, align 4, !tbaa !4
  %56 = mul nsw i32 2, %55
  %57 = add nsw i32 8, %56
  %58 = sext i32 %57 to i64
  %59 = mul i64 %58, 16
  %60 = call noalias ptr @av_mallocz(i64 noundef %59)
  %61 = load ptr, ptr %9, align 8, !tbaa !17
  %62 = getelementptr inbounds nuw %struct.AVTXContext, ptr %61, i32 0, i32 3
  store ptr %60, ptr %62, align 8, !tbaa !31
  %63 = icmp ne ptr %60, null
  br i1 %63, label %65, label %64

64:                                               ; preds = %54
  store i32 -12, ptr %8, align 4
  store i32 1, ptr %22, align 4
  br label %196

65:                                               ; preds = %54
  %66 = load ptr, ptr %9, align 8, !tbaa !17
  %67 = getelementptr inbounds nuw %struct.AVTXContext, ptr %66, i32 0, i32 3
  %68 = load ptr, ptr %67, align 8, !tbaa !31
  store ptr %68, ptr %19, align 8, !tbaa !38
  %69 = load i32, ptr %13, align 4, !tbaa !4
  %70 = sitofp i32 %69 to double
  %71 = fdiv nsz double 0x401921FB54442D18, %70
  store double %71, ptr %17, align 8, !tbaa !29
  %72 = load i32, ptr %14, align 4, !tbaa !4
  %73 = icmp ne i32 %72, 0
  br i1 %73, label %74, label %79

74:                                               ; preds = %65
  %75 = load ptr, ptr %9, align 8, !tbaa !17
  %76 = getelementptr inbounds nuw %struct.AVTXContext, ptr %75, i32 0, i32 14
  %77 = load double, ptr %76, align 8, !tbaa !28
  %78 = fmul nsz double 2.000000e+00, %77
  br label %83

79:                                               ; preds = %65
  %80 = load ptr, ptr %9, align 8, !tbaa !17
  %81 = getelementptr inbounds nuw %struct.AVTXContext, ptr %80, i32 0, i32 14
  %82 = load double, ptr %81, align 8, !tbaa !28
  br label %83

83:                                               ; preds = %79, %74
  %84 = phi nsz double [ %78, %74 ], [ %82, %79 ]
  store double %84, ptr %18, align 8, !tbaa !29
  %85 = load i32, ptr %14, align 4, !tbaa !4
  %86 = icmp ne i32 %85, 0
  %87 = select nsz i1 %86, double 5.000000e-01, double 1.000000e+00
  %88 = load double, ptr %18, align 8, !tbaa !29
  %89 = fmul nsz double %87, %88
  %90 = load ptr, ptr %19, align 8, !tbaa !38
  %91 = getelementptr inbounds nuw double, ptr %90, i32 1
  store ptr %91, ptr %19, align 8, !tbaa !38
  store double %89, ptr %90, align 8, !tbaa !29
  %92 = load i32, ptr %14, align 4, !tbaa !4
  %93 = icmp ne i32 %92, 0
  br i1 %93, label %94, label %97

94:                                               ; preds = %83
  %95 = load double, ptr %18, align 8, !tbaa !29
  %96 = fmul nsz double 5.000000e-01, %95
  br label %100

97:                                               ; preds = %83
  %98 = load double, ptr %18, align 8, !tbaa !29
  %99 = fmul nsz double 1.000000e+00, %98
  br label %100

100:                                              ; preds = %97, %94
  %101 = phi nsz double [ %96, %94 ], [ %99, %97 ]
  %102 = load ptr, ptr %19, align 8, !tbaa !38
  %103 = getelementptr inbounds nuw double, ptr %102, i32 1
  store ptr %103, ptr %19, align 8, !tbaa !38
  store double %101, ptr %102, align 8, !tbaa !29
  %104 = load double, ptr %18, align 8, !tbaa !29
  %105 = load ptr, ptr %19, align 8, !tbaa !38
  %106 = getelementptr inbounds nuw double, ptr %105, i32 1
  store ptr %106, ptr %19, align 8, !tbaa !38
  store double %104, ptr %105, align 8, !tbaa !29
  %107 = load double, ptr %18, align 8, !tbaa !29
  %108 = fneg nsz double %107
  %109 = load ptr, ptr %19, align 8, !tbaa !38
  %110 = getelementptr inbounds nuw double, ptr %109, i32 1
  store ptr %110, ptr %19, align 8, !tbaa !38
  store double %108, ptr %109, align 8, !tbaa !29
  %111 = load double, ptr %18, align 8, !tbaa !29
  %112 = fmul nsz double 5.000000e-01, %111
  %113 = load ptr, ptr %19, align 8, !tbaa !38
  %114 = getelementptr inbounds nuw double, ptr %113, i32 1
  store ptr %114, ptr %19, align 8, !tbaa !38
  store double %112, ptr %113, align 8, !tbaa !29
  %115 = load i64, ptr %20, align 8, !tbaa !30
  %116 = icmp ne i64 %115, 0
  br i1 %116, label %117, label %125

117:                                              ; preds = %100
  %118 = load ptr, ptr %9, align 8, !tbaa !17
  %119 = getelementptr inbounds nuw %struct.AVTXContext, ptr %118, i32 0, i32 13
  %120 = load float, ptr %119, align 4, !tbaa !93
  %121 = fdiv nsz float 1.000000e+00, %120
  %122 = fpext nsz float %121 to double
  %123 = load ptr, ptr %19, align 8, !tbaa !38
  %124 = getelementptr inbounds nuw double, ptr %123, i32 1
  store ptr %124, ptr %19, align 8, !tbaa !38
  store double %122, ptr %123, align 8, !tbaa !29
  br label %130

125:                                              ; preds = %100
  %126 = load double, ptr %18, align 8, !tbaa !29
  %127 = fmul nsz double -5.000000e-01, %126
  %128 = load ptr, ptr %19, align 8, !tbaa !38
  %129 = getelementptr inbounds nuw double, ptr %128, i32 1
  store ptr %129, ptr %19, align 8, !tbaa !38
  store double %127, ptr %128, align 8, !tbaa !29
  br label %130

130:                                              ; preds = %125, %117
  %131 = load i32, ptr %14, align 4, !tbaa !4
  %132 = sitofp i32 %131 to double
  %133 = fsub nsz double 5.000000e-01, %132
  %134 = load double, ptr %18, align 8, !tbaa !29
  %135 = fmul nsz double %133, %134
  %136 = load ptr, ptr %19, align 8, !tbaa !38
  %137 = getelementptr inbounds nuw double, ptr %136, i32 1
  store ptr %137, ptr %19, align 8, !tbaa !38
  store double %135, ptr %136, align 8, !tbaa !29
  %138 = load i32, ptr %14, align 4, !tbaa !4
  %139 = sitofp i32 %138 to double
  %140 = fsub nsz double 5.000000e-01, %139
  %141 = fneg nsz double %140
  %142 = load double, ptr %18, align 8, !tbaa !29
  %143 = fmul nsz double %141, %142
  %144 = load ptr, ptr %19, align 8, !tbaa !38
  %145 = getelementptr inbounds nuw double, ptr %144, i32 1
  store ptr %145, ptr %19, align 8, !tbaa !38
  store double %143, ptr %144, align 8, !tbaa !29
  call void @llvm.lifetime.start.p0(i64 4, ptr %23) #10
  store i32 0, ptr %23, align 4, !tbaa !4
  br label %146

146:                                              ; preds = %159, %130
  %147 = load i32, ptr %23, align 4, !tbaa !4
  %148 = load i32, ptr %21, align 4, !tbaa !4
  %149 = icmp slt i32 %147, %148
  br i1 %149, label %151, label %150

150:                                              ; preds = %146
  store i32 2, ptr %22, align 4
  call void @llvm.lifetime.end.p0(i64 4, ptr %23) #10
  br label %162

151:                                              ; preds = %146
  %152 = load i32, ptr %23, align 4, !tbaa !4
  %153 = sitofp i32 %152 to double
  %154 = load double, ptr %17, align 8, !tbaa !29
  %155 = fmul nsz double %153, %154
  %156 = call nsz double @llvm.cos.f64(double %155)
  %157 = load ptr, ptr %19, align 8, !tbaa !38
  %158 = getelementptr inbounds nuw double, ptr %157, i32 1
  store ptr %158, ptr %19, align 8, !tbaa !38
  store double %156, ptr %157, align 8, !tbaa !29
  br label %159

159:                                              ; preds = %151
  %160 = load i32, ptr %23, align 4, !tbaa !4
  %161 = add nsw i32 %160, 1
  store i32 %161, ptr %23, align 4, !tbaa !4
  br label %146, !llvm.loop !148

162:                                              ; preds = %150
  %163 = load ptr, ptr %9, align 8, !tbaa !17
  %164 = getelementptr inbounds nuw %struct.AVTXContext, ptr %163, i32 0, i32 3
  %165 = load ptr, ptr %164, align 8, !tbaa !31
  %166 = load i32, ptr %21, align 4, !tbaa !4
  %167 = sext i32 %166 to i64
  %168 = getelementptr inbounds double, ptr %165, i64 %167
  %169 = getelementptr inbounds double, ptr %168, i64 8
  store ptr %169, ptr %19, align 8, !tbaa !38
  call void @llvm.lifetime.start.p0(i64 4, ptr %24) #10
  store i32 0, ptr %24, align 4, !tbaa !4
  br label %170

170:                                              ; preds = %192, %162
  %171 = load i32, ptr %24, align 4, !tbaa !4
  %172 = load i32, ptr %21, align 4, !tbaa !4
  %173 = icmp slt i32 %171, %172
  br i1 %173, label %175, label %174

174:                                              ; preds = %170
  store i32 5, ptr %22, align 4
  call void @llvm.lifetime.end.p0(i64 4, ptr %24) #10
  br label %195

175:                                              ; preds = %170
  %176 = load i32, ptr %13, align 4, !tbaa !4
  %177 = load i32, ptr %24, align 4, !tbaa !4
  %178 = mul nsw i32 %177, 4
  %179 = sub nsw i32 %176, %178
  %180 = sitofp i32 %179 to double
  %181 = fdiv nsz double %180, 4.000000e+00
  %182 = load double, ptr %17, align 8, !tbaa !29
  %183 = fmul nsz double %181, %182
  %184 = call nsz double @llvm.cos.f64(double %183)
  %185 = load i32, ptr %14, align 4, !tbaa !4
  %186 = icmp ne i32 %185, 0
  %187 = select i1 %186, i32 1, i32 -1
  %188 = sitofp i32 %187 to double
  %189 = fmul nsz double %184, %188
  %190 = load ptr, ptr %19, align 8, !tbaa !38
  %191 = getelementptr inbounds nuw double, ptr %190, i32 1
  store ptr %191, ptr %19, align 8, !tbaa !38
  store double %189, ptr %190, align 8, !tbaa !29
  br label %192

192:                                              ; preds = %175
  %193 = load i32, ptr %24, align 4, !tbaa !4
  %194 = add nsw i32 %193, 1
  store i32 %194, ptr %24, align 4, !tbaa !4
  br label %170, !llvm.loop !149

195:                                              ; preds = %174
  store i32 0, ptr %8, align 4
  store i32 1, ptr %22, align 4
  br label %196

196:                                              ; preds = %195, %64, %52
  call void @llvm.lifetime.end.p0(i64 4, ptr %21) #10
  call void @llvm.lifetime.end.p0(i64 8, ptr %20) #10
  call void @llvm.lifetime.end.p0(i64 8, ptr %19) #10
  call void @llvm.lifetime.end.p0(i64 8, ptr %18) #10
  call void @llvm.lifetime.end.p0(i64 8, ptr %17) #10
  call void @llvm.lifetime.end.p0(i64 4, ptr %16) #10
  %197 = load i32, ptr %8, align 4
  ret i32 %197
}