; Function Attrs: cold nounwind optsize uwtable
define internal i32 @ff_tx_rdft_init_double_c(ptr noundef initializes((140, 152)) %0, ptr readnone captures(none) %1, i64 noundef %2, ptr readnone captures(none) %3, i32 noundef %4, i32 noundef %5, ptr noundef %6) #0 {
  %8 = and i64 %2, 8
  %9 = add nsw i32 %4, 3
  %10 = ashr i32 %9, 2
  %11 = load double, ptr %6, align 8, !tbaa !27
  %12 = getelementptr inbounds nuw i8, ptr %0, i64 144
  store double %11, ptr %12, align 8, !tbaa !25
  %13 = fptrunc nsz double %11 to float
  %14 = getelementptr inbounds nuw i8, ptr %0, i64 140
  store float %13, ptr %14, align 4, !tbaa !84
  %15 = and i64 %2, -25
  %16 = ashr i32 %4, 1
  %17 = tail call i32 @ff_tx_init_subtx(ptr noundef %0, i32 noundef 2, i64 noundef %15, ptr noundef null, i32 noundef %16, i32 noundef %5, ptr noundef nonnull %6) #16
  %.not = icmp eq i32 %17, 0
  br i1 %.not, label %18, label %.loopexit

18:                                               ; preds = %7
  %19 = shl nsw i32 %10, 1
  %20 = add nsw i32 %19, 8
  %21 = sext i32 %20 to i64
  %22 = shl nsw i64 %21, 4
  %23 = tail call noalias ptr @av_mallocz(i64 noundef %22) #16
  %24 = getelementptr inbounds nuw i8, ptr %0, i64 16
  store ptr %23, ptr %24, align 8, !tbaa !26
  %.not66 = icmp eq ptr %23, null
  br i1 %.not66, label %.loopexit, label %25

25:                                               ; preds = %18
  %26 = sitofp i32 %4 to double
  %27 = fdiv nsz double 0x401921FB54442D18, %26
  %.not67 = icmp eq i32 %5, 0
  %28 = load double, ptr %12, align 8, !tbaa !25
  %29 = fmul nsz double %28, 2.000000e+00
  %30 = select i1 %.not67, double 1.000000e+00, double 5.000000e-01
  %31 = select nsz i1 %.not67, double %28, double %29
  %32 = fmul nsz double %30, %31
  %33 = getelementptr inbounds nuw i8, ptr %23, i64 8
  store double %32, ptr %23, align 8, !tbaa !27
  %34 = fmul nsz double %31, 5.000000e-01
  %35 = select nsz i1 %.not67, double %28, double %34
  %36 = getelementptr inbounds nuw i8, ptr %23, i64 16
  store double %35, ptr %33, align 8, !tbaa !27
  %37 = getelementptr inbounds nuw i8, ptr %23, i64 24
  store double %31, ptr %36, align 8, !tbaa !27
  %38 = fneg nsz double %31
  %39 = getelementptr inbounds nuw i8, ptr %23, i64 32
  store double %38, ptr %37, align 8, !tbaa !27
  %40 = getelementptr inbounds nuw i8, ptr %23, i64 40
  store double %34, ptr %39, align 8, !tbaa !27
  %.not68 = icmp eq i64 %8, 0
  br i1 %.not68, label %45, label %41

41:                                               ; preds = %25
  %42 = load float, ptr %14, align 4, !tbaa !84
  %43 = fdiv nsz float 1.000000e+00, %42
  %44 = fpext nsz float %43 to double
  br label %47

45:                                               ; preds = %25
  %46 = fmul nsz double %31, -5.000000e-01
  br label %47

47:                                               ; preds = %45, %41
  %storemerge = phi double [ %46, %45 ], [ %44, %41 ]
  %.062 = getelementptr inbounds nuw i8, ptr %23, i64 48
  store double %storemerge, ptr %40, align 8, !tbaa !27
  %48 = sitofp i32 %5 to double
  %49 = fsub nsz double 5.000000e-01, %48
  %50 = fmul nsz double %49, %31
  %51 = getelementptr inbounds nuw i8, ptr %23, i64 56
  store double %50, ptr %.062, align 8, !tbaa !27
  %52 = fneg nsz double %49
  %53 = fmul nsz double %31, %52
  store double %53, ptr %51, align 8, !tbaa !27
  %54 = icmp sgt i32 %10, 0
  br i1 %54, label %.lr.ph.preheader, label %.loopexit

.lr.ph.preheader:                                 ; preds = %47
  %55 = getelementptr inbounds nuw i8, ptr %23, i64 64
  br label %.lr.ph

.lr.ph74:                                         ; preds = %.lr.ph
  %56 = zext nneg i32 %10 to i64
  %57 = getelementptr inbounds nuw double, ptr %23, i64 %56
  %58 = getelementptr inbounds nuw i8, ptr %57, i64 64
  %59 = select i1 %.not67, i32 -1, i32 1
  %60 = sitofp i32 %59 to double
  br label %66

.lr.ph:                                           ; preds = %.lr.ph.preheader, %.lr.ph
  %.06070 = phi i32 [ %65, %.lr.ph ], [ 0, %.lr.ph.preheader ]
  %.169 = phi ptr [ %64, %.lr.ph ], [ %55, %.lr.ph.preheader ]
  %61 = uitofp nneg i32 %.06070 to double
  %62 = fmul nsz double %27, %61
  %63 = tail call nsz double @llvm.cos.f64(double %62)
  %64 = getelementptr inbounds nuw i8, ptr %.169, i64 8
  store double %63, ptr %.169, align 8, !tbaa !27
  %65 = add nuw nsw i32 %.06070, 1
  %exitcond.not = icmp eq i32 %65, %10
  br i1 %exitcond.not, label %.lr.ph74, label %.lr.ph, !llvm.loop !139

66:                                               ; preds = %.lr.ph74, %66
  %.072 = phi i32 [ 0, %.lr.ph74 ], [ %75, %66 ]
  %.271 = phi ptr [ %58, %.lr.ph74 ], [ %74, %66 ]
  %67 = shl nsw i32 %.072, 2
  %68 = sub nsw i32 %4, %67
  %69 = sitofp i32 %68 to double
  %70 = fmul nsz double %69, 2.500000e-01
  %71 = fmul nsz double %27, %70
  %72 = tail call nsz double @llvm.cos.f64(double %71)
  %73 = fmul nsz double %72, %60
  %74 = getelementptr inbounds nuw i8, ptr %.271, i64 8
  store double %73, ptr %.271, align 8, !tbaa !27
  %75 = add nuw nsw i32 %.072, 1
  %exitcond75.not = icmp eq i32 %75, %10
  br i1 %exitcond75.not, label %.loopexit, label %66, !llvm.loop !140

.loopexit:                                        ; preds = %66, %47, %18, %7
  %.061 = phi i32 [ %17, %7 ], [ -12, %18 ], [ 0, %47 ], [ 0, %66 ]
  ret i32 %.061
}